
test.o:     file format elf32-tradbigmips


Disassembly of section .text:

00000000 <main>:
   0:	27bdffd8 	addiu	sp,sp,-40
   4:	afbe0024 	sw	s8,36(sp)
   8:	03a0f025 	move	s8,sp
   c:	24020005 	li	v0,5
  10:	afc20004 	sw	v0,4(s8)
  14:	24020003 	li	v0,3
  18:	afc20008 	sw	v0,8(s8)
  1c:	8fc30004 	lw	v1,4(s8)
  20:	8fc20008 	lw	v0,8(s8)
  24:	00621021 	addu	v0,v1,v0
  28:	afc2000c 	sw	v0,12(s8)
  2c:	8fc2000c 	lw	v0,12(s8)
  30:	00021080 	sll	v0,v0,0x2
  34:	afc20010 	sw	v0,16(s8)
  38:	8fc30004 	lw	v1,4(s8)
  3c:	8fc20008 	lw	v0,8(s8)
  40:	00621024 	and	v0,v1,v0
  44:	afc20014 	sw	v0,20(s8)
  48:	3c020000 	lui	v0,0x0
  4c:	8fc30014 	lw	v1,20(s8)
  50:	ac430000 	sw	v1,0(v0)
  54:	3c020000 	lui	v0,0x0
  58:	8c420000 	lw	v0,0(v0)
  5c:	afc20018 	sw	v0,24(s8)
  60:	8fc20018 	lw	v0,24(s8)
  64:	18400006 	blez	v0,80 <main+0x80>
  68:	00000000 	nop
  6c:	8fc20018 	lw	v0,24(s8)
  70:	2442ffff 	addiu	v0,v0,-1
  74:	afc20004 	sw	v0,4(s8)
  78:	10000004 	b	8c <main+0x8c>
  7c:	00000000 	nop
  80:	8fc20018 	lw	v0,24(s8)
  84:	24420001 	addiu	v0,v0,1
  88:	afc20004 	sw	v0,4(s8)
  8c:	8fc20004 	lw	v0,4(s8)
  90:	04410002 	bgez	v0,9c <main+0x9c>
  94:	00000000 	nop
  98:	00021023 	negu	v0,v0
  9c:	afc2001c 	sw	v0,28(s8)
  a0:	00001025 	move	v0,zero
  a4:	03c0e825 	move	sp,s8
  a8:	8fbe0024 	lw	s8,36(sp)
  ac:	27bd0028 	addiu	sp,sp,40
  b0:	03e00008 	jr	ra
  b4:	00000000 	nop
	...
